target datalayout = "e-m:e-p270:32:32-p271:32:32-p272:64:64-i64:64-i128:128-f80:128-n8:16:32:64-S128"
target triple = "x86_64-pc-linux-gnu"

%"class.clang::SourceLocation" = type { i32 }
%"class.llvm::SmallVectorBase" = type { ptr, i32, i32 }
%"class.std::__cxx11::basic_string" = type { %"struct.std::__cxx11::basic_string<char>::_Alloc_hider", i64, %union.anon.240 }
%"struct.std::__cxx11::basic_string<char>::_Alloc_hider" = type { ptr }
%union.anon.240 = type { i64, [8 x i8] }
%"class.clang::StreamingDiagnostic::DiagStorageAllocator" = type <{ [16 x %"struct.clang::DiagnosticStorage"], [16 x ptr], i32, [4 x i8] }>
%"struct.clang::DiagnosticStorage" = type { i8, [10 x i8], [10 x i64], [10 x %"class.std::__cxx11::basic_string"], %"class.llvm::SmallVector.973", %"class.llvm::SmallVector.978" }
%"class.llvm::SmallVector.973" = type { %"class.llvm::SmallVectorImpl.974", %"struct.llvm::SmallVectorStorage.977" }
%"class.llvm::SmallVectorImpl.974" = type { %"class.llvm::SmallVectorTemplateBase.975" }
%"class.llvm::SmallVectorTemplateBase.975" = type { %"class.llvm::SmallVectorTemplateCommon.976" }
%"class.llvm::SmallVectorTemplateCommon.976" = type { %"class.llvm::SmallVectorBase" }
%"struct.llvm::SmallVectorStorage.977" = type { [96 x i8] }
%"class.llvm::SmallVector.978" = type { %"class.llvm::SmallVectorImpl.979", %"struct.llvm::SmallVectorStorage.982" }
%"class.llvm::SmallVectorImpl.979" = type { %"class.llvm::SmallVectorTemplateBase.980" }
%"class.llvm::SmallVectorTemplateBase.980" = type { %"class.llvm::SmallVectorTemplateCommon.981" }
%"class.llvm::SmallVectorTemplateCommon.981" = type { %"class.llvm::SmallVectorBase" }
%"struct.llvm::SmallVectorStorage.982" = type { [384 x i8] }
%"class.clang::StreamingDiagnostic" = type { ptr, ptr }
%"class.clang::SourceRange" = type { %"class.clang::SourceLocation", %"class.clang::SourceLocation" }
%"class.clang::PartialDiagnostic" = type <{ %"class.clang::StreamingDiagnostic", i32, [4 x i8] }>
%"class.clang::CharSourceRange" = type <{ %"class.clang::SourceRange", i8, [3 x i8] }>

; Function Attrs: mustprogress nounwind uwtable
define linkonce_odr hidden void @_ZN5clang19StreamingDiagnostic20DiagStorageAllocator10DeallocateEPNS_17DiagnosticStorageE(ptr noundef nonnull align 8 dereferenceable(14980) %0, ptr noundef %1) #0 comdat align 2 {
  %3 = alloca ptr, align 8
  %4 = alloca ptr, align 8
  store ptr %0, ptr %3, align 8
  store ptr %1, ptr %4, align 8
  %5 = load ptr, ptr %3, align 8
  %6 = load ptr, ptr %4, align 8
  %7 = getelementptr inbounds nuw %"class.clang::StreamingDiagnostic::DiagStorageAllocator", ptr %5, i32 0, i32 0
  %8 = getelementptr inbounds [16 x %"struct.clang::DiagnosticStorage"], ptr %7, i64 0, i64 0
  %9 = icmp uge ptr %6, %8
  br i1 %9, label %10, label %24

10:                                               ; preds = %2
  %11 = load ptr, ptr %4, align 8
  %12 = getelementptr inbounds nuw %"class.clang::StreamingDiagnostic::DiagStorageAllocator", ptr %5, i32 0, i32 0
  %13 = getelementptr inbounds [16 x %"struct.clang::DiagnosticStorage"], ptr %12, i64 0, i64 0
  %14 = getelementptr inbounds %"struct.clang::DiagnosticStorage", ptr %13, i64 16
  %15 = icmp ule ptr %11, %14
  br i1 %15, label %16, label %24

16:                                               ; preds = %10
  %17 = load ptr, ptr %4, align 8
  %18 = getelementptr inbounds nuw %"class.clang::StreamingDiagnostic::DiagStorageAllocator", ptr %5, i32 0, i32 1
  %19 = getelementptr inbounds nuw %"class.clang::StreamingDiagnostic::DiagStorageAllocator", ptr %5, i32 0, i32 2
  %20 = load i32, ptr %19, align 8
  %21 = add i32 %20, 1
  store i32 %21, ptr %19, align 8
  %22 = zext i32 %20 to i64
  %23 = getelementptr inbounds [16 x ptr], ptr %18, i64 0, i64 %22
  store ptr %17, ptr %23, align 8
  br label %28

24:                                               ; preds = %10, %2
  %25 = load ptr, ptr %4, align 8
  %26 = icmp eq ptr %25, null
  br i1 %26, label %28, label %27

27:                                               ; preds = %24
  call void @_ZN5clang17DiagnosticStorageD2Ev(ptr noundef nonnull align 8 dereferenceable(928) %25) #15
  call void @_ZdlPvm(ptr noundef %25, i64 noundef 928) #18
  br label %28

28:                                               ; preds = %27, %24, %16
  ret void
}

; Function Attrs: mustprogress nounwind uwtable
define linkonce_odr hidden void @_ZN5clang19StreamingDiagnostic15freeStorageSlowEv(ptr noundef nonnull align 8 dereferenceable(16) %0) #0 comdat align 2 {
  %2 = alloca ptr, align 8
  store ptr %0, ptr %2, align 8
  %3 = load ptr, ptr %2, align 8
  %4 = getelementptr inbounds nuw %"class.clang::StreamingDiagnostic", ptr %3, i32 0, i32 1
  %5 = load ptr, ptr %4, align 8
  %6 = icmp ne ptr %5, null
  br i1 %6, label %8, label %7

7:                                                ; preds = %1
  br label %14

8:                                                ; preds = %1
  %9 = getelementptr inbounds nuw %"class.clang::StreamingDiagnostic", ptr %3, i32 0, i32 1
  %10 = load ptr, ptr %9, align 8
  %11 = getelementptr inbounds nuw %"class.clang::StreamingDiagnostic", ptr %3, i32 0, i32 0
  %12 = load ptr, ptr %11, align 8
  call void @_ZN5clang19StreamingDiagnostic20DiagStorageAllocator10DeallocateEPNS_17DiagnosticStorageE(ptr noundef nonnull align 8 dereferenceable(14980) %10, ptr noundef %12)
  %13 = getelementptr inbounds nuw %"class.clang::StreamingDiagnostic", ptr %3, i32 0, i32 0
  store ptr null, ptr %13, align 8
  br label %14

14:                                               ; preds = %8, %7
  ret void
}

; Function Attrs: mustprogress nounwind uwtable
define linkonce_odr hidden void @_ZN5clang15CharSourceRangeC2ENS_11SourceRangeEb(ptr noundef nonnull align 4 dereferenceable(9) %0, i64 %1, i1 noundef zeroext %2) unnamed_addr #0 comdat align 2 {
  %4 = alloca %"class.clang::SourceRange", align 4
  %5 = alloca ptr, align 8
  %6 = alloca i8, align 1
  store i64 %1, ptr %4, align 4
  store ptr %0, ptr %5, align 8
  %7 = zext i1 %2 to i8
  store i8 %7, ptr %6, align 1
  %8 = load ptr, ptr %5, align 8
  %9 = getelementptr inbounds nuw %"class.clang::CharSourceRange", ptr %8, i32 0, i32 0
  call void @llvm.memcpy.p0.p0.i64(ptr align 4 %9, ptr align 4 %4, i64 8, i1 false)
  %10 = getelementptr inbounds nuw %"class.clang::CharSourceRange", ptr %8, i32 0, i32 1
  %11 = load i8, ptr %6, align 1
  %12 = trunc i8 %11 to i1
  %13 = zext i1 %12 to i8
  store i8 %13, ptr %10, align 4
  ret void
}

; Function Attrs: mustprogress nounwind uwtable
define linkonce_odr hidden void @_ZN5clang19StreamingDiagnostic11freeStorageEv(ptr noundef nonnull align 8 dereferenceable(16) %0) #0 comdat align 2 {
  %2 = alloca ptr, align 8
  store ptr %0, ptr %2, align 8
  %3 = load ptr, ptr %2, align 8
  %4 = getelementptr inbounds nuw %"class.clang::StreamingDiagnostic", ptr %3, i32 0, i32 0
  %5 = load ptr, ptr %4, align 8
  %6 = icmp ne ptr %5, null
  br i1 %6, label %8, label %7

7:                                                ; preds = %1
  br label %9

8:                                                ; preds = %1
  call void @_ZN5clang19StreamingDiagnostic15freeStorageSlowEv(ptr noundef nonnull align 8 dereferenceable(16) %3)
  br label %9

9:                                                ; preds = %8, %7
  ret void
}

; Function Attrs: mustprogress nounwind uwtable
define linkonce_odr hidden { i64, i8 } @_ZN5clang15CharSourceRange13getTokenRangeENS_11SourceRangeE(i64 %0) #0 comdat align 2 {
  %2 = alloca %"class.clang::CharSourceRange", align 4
  %3 = alloca %"class.clang::SourceRange", align 4
  %4 = alloca %"class.clang::SourceRange", align 4
  %5 = alloca { i64, i8 }, align 8
  store i64 %0, ptr %3, align 4
  call void @llvm.memcpy.p0.p0.i64(ptr align 4 %4, ptr align 4 %3, i64 8, i1 false)
  %6 = load i64, ptr %4, align 4
  call void @_ZN5clang15CharSourceRangeC2ENS_11SourceRangeEb(ptr noundef nonnull align 4 dereferenceable(9) %2, i64 %6, i1 noundef zeroext true)
  call void @llvm.memcpy.p0.p0.i64(ptr align 8 %5, ptr align 4 %2, i64 12, i1 false)
  %7 = load { i64, i8 }, ptr %5, align 8
  ret { i64, i8 } %7
}

; Function Attrs: mustprogress nounwind uwtable
define linkonce_odr hidden void @_ZN5clang19StreamingDiagnosticD2Ev(ptr noundef nonnull align 8 dereferenceable(16) %0) unnamed_addr #0 comdat align 2 {
  %2 = alloca ptr, align 8
  store ptr %0, ptr %2, align 8
  %3 = load ptr, ptr %2, align 8
  call void @_ZN5clang19StreamingDiagnostic11freeStorageEv(ptr noundef nonnull align 8 dereferenceable(16) %3)
  ret void
}

; Function Attrs: mustprogress nounwind uwtable
define linkonce_odr hidden noundef nonnull align 8 dereferenceable(16) ptr @_ZN5clanglsERKNS_19StreamingDiagnosticENS_11SourceRangeE(ptr noundef nonnull align 8 dereferenceable(16) %0, i64 %1) #0 comdat {
  %3 = alloca %"class.clang::SourceRange", align 4
  %4 = alloca ptr, align 8
  %5 = alloca %"class.clang::CharSourceRange", align 4
  %6 = alloca %"class.clang::SourceRange", align 4
  %7 = alloca { i64, i8 }, align 8
  store i64 %1, ptr %3, align 4
  store ptr %0, ptr %4, align 8
  %8 = load ptr, ptr %4, align 8
  call void @llvm.memcpy.p0.p0.i64(ptr align 4 %6, ptr align 4 %3, i64 8, i1 false)
  %9 = load i64, ptr %6, align 4
  %10 = call { i64, i8 } @_ZN5clang15CharSourceRange13getTokenRangeENS_11SourceRangeE(i64 %9)
  store { i64, i8 } %10, ptr %7, align 8
  call void @llvm.memcpy.p0.p0.i64(ptr align 4 %5, ptr align 8 %7, i64 9, i1 false)
  call void @_ZNK5clang19StreamingDiagnostic14AddSourceRangeERKNS_15CharSourceRangeE(ptr noundef nonnull align 8 dereferenceable(16) %8, ptr noundef nonnull align 4 dereferenceable(9) %5)
  %11 = load ptr, ptr %4, align 8
  ret ptr %11
}

; Function Attrs: mustprogress nounwind uwtable
define linkonce_odr hidden void @_ZN5clang17PartialDiagnosticD2Ev(ptr noundef nonnull align 8 dereferenceable(20) %0) unnamed_addr #0 comdat align 2 {
  %2 = alloca ptr, align 8
  store ptr %0, ptr %2, align 8
  %3 = load ptr, ptr %2, align 8
  call void @_ZN5clang19StreamingDiagnosticD2Ev(ptr noundef nonnull align 8 dereferenceable(16) %3) #15
  ret void
}

; Function Attrs: mustprogress nounwind uwtable
define linkonce_odr hidden noundef nonnull align 8 dereferenceable(20) ptr @_ZNK5clang17PartialDiagnosticlsINS_11SourceRangeEvEERKS0_OT_(ptr noundef nonnull align 8 dereferenceable(20) %0, ptr noundef nonnull align 4 dereferenceable(8) %1) #0 comdat align 2 {
  %3 = alloca ptr, align 8
  %4 = alloca ptr, align 8
  %5 = alloca ptr, align 8
  %6 = alloca %"class.clang::SourceRange", align 4
  store ptr %0, ptr %3, align 8
  store ptr %1, ptr %4, align 8
  %7 = load ptr, ptr %3, align 8
  store ptr %7, ptr %5, align 8
  %8 = load ptr, ptr %5, align 8
  %9 = load ptr, ptr %4, align 8
  call void @llvm.memcpy.p0.p0.i64(ptr align 4 %6, ptr align 4 %9, i64 8, i1 false)
  %10 = load i64, ptr %6, align 4
  %11 = call noundef nonnull align 8 dereferenceable(16) ptr @_ZN5clanglsERKNS_19StreamingDiagnosticENS_11SourceRangeE(ptr noundef nonnull align 8 dereferenceable(16) %8, i64 %10)
  ret ptr %7
}

; Function Attrs: mustprogress nounwind uwtable
define internal void @_ZL20CheckNonNullArgumentRN5clang4SemaEPKNS_4ExprENS_14SourceLocationE(ptr noundef nonnull align 8 dereferenceable(17560) %0, ptr noundef %1, i32 %2) #0 {
  %4 = alloca %"class.clang::SourceLocation", align 4
  %5 = alloca ptr, align 8
  %6 = alloca ptr, align 8
  %7 = alloca %"class.clang::SourceLocation", align 4
  %8 = alloca %"class.clang::PartialDiagnostic", align 8
  %9 = alloca %"class.clang::SourceRange", align 4
  %10 = getelementptr inbounds nuw %"class.clang::SourceLocation", ptr %4, i32 0, i32 0
  store i32 %2, ptr %10, align 4
  store ptr %0, ptr %5, align 8
  store ptr %1, ptr %6, align 8
  %11 = load ptr, ptr %5, align 8
  %12 = load ptr, ptr %6, align 8
  %13 = call noundef zeroext i1 @_ZL16CheckNonNullExprRN5clang4SemaEPKNS_4ExprE(ptr noundef nonnull align 8 dereferenceable(17560) %11, ptr noundef %12)
  br i1 %13, label %14, label %25

14:                                               ; preds = %3
  %15 = load ptr, ptr %5, align 8
  call void @llvm.memcpy.p0.p0.i64(ptr align 4 %7, ptr align 4 %4, i64 4, i1 false)
  %16 = load ptr, ptr %6, align 8
  %17 = load ptr, ptr %5, align 8
  %18 = getelementptr inbounds i8, ptr %17, i64 8
  call void @_ZN5clang8SemaBase5PDiagEj(ptr dead_on_unwind writable sret(%"class.clang::PartialDiagnostic") align 8 %8, ptr noundef nonnull align 8 dereferenceable(8) %18, i32 noundef 6706)
  %19 = load ptr, ptr %6, align 8
  %20 = call i64 @_ZNK5clang4Stmt14getSourceRangeEv(ptr noundef nonnull align 8 dereferenceable(8) %19) #14
  store i64 %20, ptr %9, align 4
  %21 = call noundef nonnull align 8 dereferenceable(20) ptr @_ZNK5clang17PartialDiagnosticlsINS_11SourceRangeEvEERKS0_OT_(ptr noundef nonnull align 8 dereferenceable(20) %8, ptr noundef nonnull align 4 dereferenceable(8) %9)
  %22 = getelementptr inbounds nuw %"class.clang::SourceLocation", ptr %7, i32 0, i32 0
  %23 = load i32, ptr %22, align 4
  %24 = call noundef zeroext i1 @_ZN5clang4Sema19DiagRuntimeBehaviorENS_14SourceLocationEPKNS_4StmtERKNS_17PartialDiagnosticE(ptr noundef nonnull align 8 dereferenceable(17560) %15, i32 %23, ptr noundef %16, ptr noundef nonnull align 8 dereferenceable(20) %21)
  call void @_ZN5clang17PartialDiagnosticD2Ev(ptr noundef nonnull align 8 dereferenceable(20) %8) #15
  br label %25

25:                                               ; preds = %14, %3
  ret void
}