; Function Attrs: mustprogress nounwind uwtable
define internal fastcc void @_ZL20CheckNonNullArgumentRN5clang4SemaEPKNS_4ExprENS_14SourceLocationE(ptr noundef nonnull align 8 dereferenceable(17560) %0, ptr noundef %1, i32 %2) unnamed_addr #0 {
  %4 = alloca %"class.clang::CharSourceRange", align 8
  %5 = alloca %"class.clang::PartialDiagnostic", align 8
  %6 = tail call fastcc noundef zeroext i1 @_ZL16CheckNonNullExprRN5clang4SemaEPKNS_4ExprE(ptr noundef nonnull align 8 dereferenceable(17560) %0, ptr noundef %1)
  br i1 %6, label %7, label %_ZN5clang17PartialDiagnosticD2Ev.exit

7:                                                ; preds = %3
  %8 = getelementptr inbounds i8, ptr %0, i64 8
  call void @_ZN5clang8SemaBase5PDiagEj(ptr dead_on_unwind nonnull writable sret(%"class.clang::PartialDiagnostic") align 8 %5, ptr noundef nonnull align 8 dereferenceable(8) %8, i32 noundef 6706) #25
  %9 = call i64 @_ZNK5clang4Stmt14getSourceRangeEv(ptr noundef nonnull align 8 dereferenceable(8) %1) #26
  call void @llvm.lifetime.start.p0(i64 12, ptr nonnull %4)
  store i64 %9, ptr %4, align 8
  %.sroa.2.0..sroa_idx.i.i = getelementptr inbounds i8, ptr %4, i64 8
  store i8 1, ptr %.sroa.2.0..sroa_idx.i.i, align 8
  call void @_ZNK5clang19StreamingDiagnostic14AddSourceRangeERKNS_15CharSourceRangeE(ptr noundef nonnull align 8 dereferenceable(16) %5, ptr noundef nonnull align 4 dereferenceable(9) %4)
  call void @llvm.lifetime.end.p0(i64 12, ptr nonnull %4)
  %10 = call noundef zeroext i1 @_ZN5clang4Sema19DiagRuntimeBehaviorENS_14SourceLocationEPKNS_4StmtERKNS_17PartialDiagnosticE(ptr noundef nonnull align 8 dereferenceable(17560) %0, i32 %2, ptr noundef nonnull %1, ptr noundef nonnull align 8 dereferenceable(20) %5) #25
  %11 = load ptr, ptr %5, align 8
  %.not.i.i.i = icmp eq ptr %11, null
  br i1 %.not.i.i.i, label %_ZN5clang17PartialDiagnosticD2Ev.exit, label %12

12:                                               ; preds = %7
  %13 = getelementptr inbounds nuw i8, ptr %5, i64 8
  %14 = load ptr, ptr %13, align 8
  %.not.i.i.i.i = icmp eq ptr %14, null
  br i1 %.not.i.i.i.i, label %_ZN5clang17PartialDiagnosticD2Ev.exit, label %15

15:                                               ; preds = %12
  %16 = icmp uge ptr %11, %14
  %17 = getelementptr inbounds i8, ptr %14, i64 14848
  %18 = icmp ule ptr %11, %17
  %or.cond.i.i.i.i.i = select i1 %16, i1 %18, i1 false
  br i1 %or.cond.i.i.i.i.i, label %19, label %25

19:                                               ; preds = %15
  %20 = getelementptr inbounds nuw i8, ptr %14, i64 14976
  %21 = load i32, ptr %20, align 8
  %22 = add i32 %21, 1
  store i32 %22, ptr %20, align 8
  %23 = zext i32 %21 to i64
  %24 = getelementptr inbounds [16 x ptr], ptr %17, i64 0, i64 %23
  store ptr %11, ptr %24, align 8
  br label %_ZN5clang17PartialDiagnosticD2Ev.exit

25:                                               ; preds = %15
  call void @_ZN5clang17DiagnosticStorageD2Ev(ptr noundef nonnull align 8 dereferenceable(928) %11) #25
  call void @_ZdlPvm(ptr noundef nonnull %11, i64 noundef 928) #27
  br label %_ZN5clang17PartialDiagnosticD2Ev.exit

_ZN5clang17PartialDiagnosticD2Ev.exit:            ; preds = %19, %25, %12, %7, %3
  ret void
}